; Function Attrs: nounwind uwtable
define internal fastcc i64 @timelib_get_nr(ptr nocapture noundef %0, i32 noundef %1) unnamed_addr #0 {
  %.promoted = load ptr, ptr %0, align 8
  %3 = load i8, ptr %.promoted, align 1
  %4 = add i8 %3, -58
  %or.cond30 = icmp ult i8 %4, -10
  br i1 %or.cond30, label %.critedge, label %.preheader

.preheader:                                       ; preds = %9, %2
  %.promoted31 = phi ptr [ %.promoted, %2 ], [ %10, %9 ]
  %5 = icmp sgt i32 %1, 0
  br i1 %5, label %.lr.ph, label %.critedge2

.critedge:                                        ; preds = %2, %9
  %6 = phi i8 [ %11, %9 ], [ %3, %2 ]
  %7 = phi ptr [ %10, %9 ], [ %.promoted, %2 ]
  %8 = icmp eq i8 %6, 0
  br i1 %8, label %.loopexit, label %9

9:                                                ; preds = %.critedge
  %10 = getelementptr inbounds i8, ptr %7, i64 1
  store ptr %10, ptr %0, align 8
  %11 = load i8, ptr %10, align 1
  %12 = add i8 %11, -58
  %or.cond = icmp ult i8 %12, -10
  br i1 %or.cond, label %.critedge, label %.preheader

.lr.ph:                                           ; preds = %.preheader, %.lr.ph
  %.034 = phi i32 [ %15, %.lr.ph ], [ 0, %.preheader ]
  %13 = phi ptr [ %14, %.lr.ph ], [ %.promoted31, %.preheader ]
  %14 = getelementptr inbounds i8, ptr %13, i64 1
  store ptr %14, ptr %0, align 8
  %15 = add nuw nsw i32 %.034, 1
  %16 = load i8, ptr %14, align 1
  %17 = add i8 %16, -48
  %or.cond26 = icmp ult i8 %17, 10
  %18 = icmp slt i32 %15, %1
  %or.cond27 = select i1 %or.cond26, i1 %18, i1 false
  br i1 %or.cond27, label %.lr.ph, label %.critedge2

.critedge2:                                       ; preds = %.lr.ph, %.preheader
  %.lcssa = phi ptr [ %.promoted31, %.preheader ], [ %14, %.lr.ph ]
  %19 = ptrtoint ptr %.lcssa to i64
  %20 = ptrtoint ptr %.promoted31 to i64
  %21 = sub i64 %19, %20
  %22 = add nsw i64 %21, 1
  %23 = tail call noalias ptr @_ecalloc(i64 noundef 1, i64 noundef %22) #14
  tail call void @llvm.memcpy.p0.p0.i64(ptr align 1 %23, ptr nonnull align 1 %.promoted31, i64 %21, i1 false)
  %24 = tail call i64 @strtoll(ptr nocapture noundef %23, ptr noundef null, i32 noundef 10) #10
  tail call void @_efree(ptr noundef %23) #10
  br label %.loopexit

.loopexit:                                        ; preds = %.critedge, %.critedge2
  %.023 = phi i64 [ %24, %.critedge2 ], [ -9999999, %.critedge ]
  ret i64 %.023
}